target datalayout = "e-m:e-p270:32:32-p271:32:32-p272:64:64-i64:64-i128:128-f80:128-n8:16:32:64-S128"
target triple = "x86_64-pc-linux-gnu"

%struct.expert_field = type { i32, i32 }

@hf_pfcp_n6_routing_information_source_ipv4 = internal global i32 0, align 4
@hf_pfcp_n6_routing_information_source_ipv6 = internal global i32 0, align 4
@hf_pfcp_n6_routing_information_source_port = internal global i32 0, align 4
@hf_pfcp_n6_routing_information_destination_ipv4 = internal global i32 0, align 4
@hf_pfcp_n6_routing_information_destination_ipv6 = internal global i32 0, align 4
@hf_pfcp_n6_routing_information_destination_port = internal global i32 0, align 4
@ei_pfcp_ie_data_not_decoded = internal global %struct.expert_field zeroinitializer, align 4

; Function Attrs: null_pointer_is_valid sspstrong uwtable
define internal void @dissect_pfcp_n6_routing_information(ptr noundef %0, ptr noundef %1, ptr noundef %2, ptr noundef %3, i16 noundef zeroext %4, i8 noundef zeroext %5, ptr noundef %6) #0 {
  %8 = alloca ptr, align 8
  %9 = alloca ptr, align 8
  %10 = alloca ptr, align 8
  %11 = alloca ptr, align 8
  %12 = alloca i16, align 2
  %13 = alloca i8, align 1
  %14 = alloca ptr, align 8
  %15 = alloca i32, align 4
  %16 = alloca i64, align 8
  store ptr %0, ptr %8, align 8
  store ptr %1, ptr %9, align 8
  store ptr %2, ptr %10, align 8
  store ptr %3, ptr %11, align 8
  store i16 %4, ptr %12, align 2
  store i8 %5, ptr %13, align 1
  store ptr %6, ptr %14, align 8
  call void @llvm.lifetime.start.p0(i64 4, ptr %15) #13
  store i32 0, ptr %15, align 4
  call void @llvm.lifetime.start.p0(i64 8, ptr %16) #13
  %17 = load ptr, ptr %10, align 8
  %18 = load ptr, ptr %8, align 8
  %19 = load i32, ptr %15, align 4
  call void @proto_tree_add_bitmask_list_ret_uint64(ptr noundef %17, ptr noundef %18, i32 noundef %19, i32 noundef 1, ptr noundef @dissect_pfcp_n6_routing_information.pfcp_n6_routing_information_flags, i32 noundef 0, ptr noundef %16)
  %20 = load i32, ptr %15, align 4
  %21 = add i32 %20, 1
  store i32 %21, ptr %15, align 4
  %22 = load i64, ptr %16, align 8
  %23 = and i64 %22, 1
  %24 = icmp ne i64 %23, 0
  br i1 %24, label %25, label %33

25:                                               ; preds = %7
  %26 = load ptr, ptr %10, align 8
  %27 = load i32, ptr @hf_pfcp_n6_routing_information_source_ipv4, align 4
  %28 = load ptr, ptr %8, align 8
  %29 = load i32, ptr %15, align 4
  %30 = call ptr @proto_tree_add_item(ptr noundef %26, i32 noundef %27, ptr noundef %28, i32 noundef %29, i32 noundef 4, i32 noundef 0)
  %31 = load i32, ptr %15, align 4
  %32 = add i32 %31, 4
  store i32 %32, ptr %15, align 4
  br label %33

33:                                               ; preds = %25, %7
  %34 = load i64, ptr %16, align 8
  %35 = and i64 %34, 2
  %36 = icmp ne i64 %35, 0
  br i1 %36, label %37, label %45

37:                                               ; preds = %33
  %38 = load ptr, ptr %10, align 8
  %39 = load i32, ptr @hf_pfcp_n6_routing_information_source_ipv6, align 4
  %40 = load ptr, ptr %8, align 8
  %41 = load i32, ptr %15, align 4
  %42 = call ptr @proto_tree_add_item(ptr noundef %38, i32 noundef %39, ptr noundef %40, i32 noundef %41, i32 noundef 16, i32 noundef 0)
  %43 = load i32, ptr %15, align 4
  %44 = add i32 %43, 16
  store i32 %44, ptr %15, align 4
  br label %45

45:                                               ; preds = %37, %33
  %46 = load i64, ptr %16, align 8
  %47 = and i64 %46, 4
  %48 = icmp ne i64 %47, 0
  br i1 %48, label %49, label %57

49:                                               ; preds = %45
  %50 = load ptr, ptr %10, align 8
  %51 = load i32, ptr @hf_pfcp_n6_routing_information_source_port, align 4
  %52 = load ptr, ptr %8, align 8
  %53 = load i32, ptr %15, align 4
  %54 = call ptr @proto_tree_add_item(ptr noundef %50, i32 noundef %51, ptr noundef %52, i32 noundef %53, i32 noundef 2, i32 noundef 0)
  %55 = load i32, ptr %15, align 4
  %56 = add i32 %55, 2
  store i32 %56, ptr %15, align 4
  br label %57

57:                                               ; preds = %49, %45
  %58 = load i64, ptr %16, align 8
  %59 = and i64 %58, 8
  %60 = icmp ne i64 %59, 0
  br i1 %60, label %61, label %69

61:                                               ; preds = %57
  %62 = load ptr, ptr %10, align 8
  %63 = load i32, ptr @hf_pfcp_n6_routing_information_destination_ipv4, align 4
  %64 = load ptr, ptr %8, align 8
  %65 = load i32, ptr %15, align 4
  %66 = call ptr @proto_tree_add_item(ptr noundef %62, i32 noundef %63, ptr noundef %64, i32 noundef %65, i32 noundef 4, i32 noundef 0)
  %67 = load i32, ptr %15, align 4
  %68 = add i32 %67, 4
  store i32 %68, ptr %15, align 4
  br label %69

69:                                               ; preds = %61, %57
  %70 = load i64, ptr %16, align 8
  %71 = and i64 %70, 16
  %72 = icmp ne i64 %71, 0
  br i1 %72, label %73, label %81

73:                                               ; preds = %69
  %74 = load ptr, ptr %10, align 8
  %75 = load i32, ptr @hf_pfcp_n6_routing_information_destination_ipv6, align 4
  %76 = load ptr, ptr %8, align 8
  %77 = load i32, ptr %15, align 4
  %78 = call ptr @proto_tree_add_item(ptr noundef %74, i32 noundef %75, ptr noundef %76, i32 noundef %77, i32 noundef 16, i32 noundef 0)
  %79 = load i32, ptr %15, align 4
  %80 = add i32 %79, 16
  store i32 %80, ptr %15, align 4
  br label %81

81:                                               ; preds = %73, %69
  %82 = load i64, ptr %16, align 8
  %83 = and i64 %82, 32
  %84 = icmp ne i64 %83, 0
  br i1 %84, label %85, label %93

85:                                               ; preds = %81
  %86 = load ptr, ptr %10, align 8
  %87 = load i32, ptr @hf_pfcp_n6_routing_information_destination_port, align 4
  %88 = load ptr, ptr %8, align 8
  %89 = load i32, ptr %15, align 4
  %90 = call ptr @proto_tree_add_item(ptr noundef %86, i32 noundef %87, ptr noundef %88, i32 noundef %89, i32 noundef 2, i32 noundef 0)
  %91 = load i32, ptr %15, align 4
  %92 = add i32 %91, 2
  store i32 %92, ptr %15, align 4
  br label %93

93:                                               ; preds = %85, %81
  %94 = load i32, ptr %15, align 4
  %95 = load i16, ptr %12, align 2
  %96 = zext i16 %95 to i32
  %97 = icmp slt i32 %94, %96
  br i1 %97, label %98, label %104

98:                                               ; preds = %93
  %99 = load ptr, ptr %10, align 8
  %100 = load ptr, ptr %9, align 8
  %101 = load ptr, ptr %8, align 8
  %102 = load i32, ptr %15, align 4
  %103 = call ptr @proto_tree_add_expert(ptr noundef %99, ptr noundef %100, ptr noundef @ei_pfcp_ie_data_not_decoded, ptr noundef %101, i32 noundef %102, i32 noundef -1)
  br label %104

104:                                              ; preds = %98, %93
  call void @llvm.lifetime.end.p0(i64 8, ptr %16) #13
  call void @llvm.lifetime.end.p0(i64 4, ptr %15) #13
  ret void
}