; Function Attrs: null_pointer_is_valid sspstrong uwtable
define internal void @dissect_pfcp_n6_routing_information(ptr noundef %0, ptr noundef %1, ptr noundef %2, ptr readnone captures(none) %3, i16 noundef zeroext %4, i8 zeroext %5, ptr readnone captures(none) %6) #0 {
  %8 = alloca i64, align 8
  call void @llvm.lifetime.start.p0(i64 8, ptr nonnull %8) #15
  call void @proto_tree_add_bitmask_list_ret_uint64(ptr noundef %2, ptr noundef %0, i32 noundef 0, i32 noundef 1, ptr noundef nonnull @dissect_pfcp_n6_routing_information.pfcp_n6_routing_information_flags, i32 noundef 0, ptr noundef nonnull %8)
  %9 = load i64, ptr %8, align 8
  %10 = and i64 %9, 1
  %.not = icmp eq i64 %10, 0
  br i1 %.not, label %14, label %11

11:                                               ; preds = %7
  %12 = load i32, ptr @hf_pfcp_n6_routing_information_source_ipv4, align 4
  %13 = call ptr @proto_tree_add_item(ptr noundef %2, i32 noundef %12, ptr noundef %0, i32 noundef 1, i32 noundef 4, i32 noundef 0)
  %.pre = load i64, ptr %8, align 8
  br label %14

14:                                               ; preds = %11, %7
  %15 = phi i64 [ %.pre, %11 ], [ %9, %7 ]
  %.0 = phi i32 [ 5, %11 ], [ 1, %7 ]
  %16 = and i64 %15, 2
  %.not33 = icmp eq i64 %16, 0
  br i1 %.not33, label %21, label %17

17:                                               ; preds = %14
  %18 = load i32, ptr @hf_pfcp_n6_routing_information_source_ipv6, align 4
  %19 = call ptr @proto_tree_add_item(ptr noundef %2, i32 noundef %18, ptr noundef %0, i32 noundef %.0, i32 noundef 16, i32 noundef 0)
  %20 = or disjoint i32 %.0, 16
  %.pre38 = load i64, ptr %8, align 8
  br label %21

21:                                               ; preds = %17, %14
  %22 = phi i64 [ %.pre38, %17 ], [ %15, %14 ]
  %.1 = phi i32 [ %20, %17 ], [ %.0, %14 ]
  %23 = and i64 %22, 4
  %.not34 = icmp eq i64 %23, 0
  br i1 %.not34, label %28, label %24

24:                                               ; preds = %21
  %25 = load i32, ptr @hf_pfcp_n6_routing_information_source_port, align 4
  %26 = call ptr @proto_tree_add_item(ptr noundef %2, i32 noundef %25, ptr noundef %0, i32 noundef %.1, i32 noundef 2, i32 noundef 0)
  %27 = add nuw nsw i32 %.1, 2
  %.pre39 = load i64, ptr %8, align 8
  br label %28

28:                                               ; preds = %24, %21
  %29 = phi i64 [ %.pre39, %24 ], [ %22, %21 ]
  %.2 = phi i32 [ %27, %24 ], [ %.1, %21 ]
  %30 = and i64 %29, 8
  %.not35 = icmp eq i64 %30, 0
  br i1 %.not35, label %35, label %31

31:                                               ; preds = %28
  %32 = load i32, ptr @hf_pfcp_n6_routing_information_destination_ipv4, align 4
  %33 = call ptr @proto_tree_add_item(ptr noundef %2, i32 noundef %32, ptr noundef %0, i32 noundef %.2, i32 noundef 4, i32 noundef 0)
  %34 = add nuw nsw i32 %.2, 4
  %.pre40 = load i64, ptr %8, align 8
  br label %35

35:                                               ; preds = %31, %28
  %36 = phi i64 [ %.pre40, %31 ], [ %29, %28 ]
  %.3 = phi i32 [ %34, %31 ], [ %.2, %28 ]
  %37 = and i64 %36, 16
  %.not36 = icmp eq i64 %37, 0
  br i1 %.not36, label %42, label %38

38:                                               ; preds = %35
  %39 = load i32, ptr @hf_pfcp_n6_routing_information_destination_ipv6, align 4
  %40 = call ptr @proto_tree_add_item(ptr noundef %2, i32 noundef %39, ptr noundef %0, i32 noundef %.3, i32 noundef 16, i32 noundef 0)
  %41 = add nuw nsw i32 %.3, 16
  %.pre41 = load i64, ptr %8, align 8
  br label %42

42:                                               ; preds = %38, %35
  %43 = phi i64 [ %.pre41, %38 ], [ %36, %35 ]
  %.4 = phi i32 [ %41, %38 ], [ %.3, %35 ]
  %44 = and i64 %43, 32
  %.not37 = icmp eq i64 %44, 0
  br i1 %.not37, label %49, label %45

45:                                               ; preds = %42
  %46 = load i32, ptr @hf_pfcp_n6_routing_information_destination_port, align 4
  %47 = call ptr @proto_tree_add_item(ptr noundef %2, i32 noundef %46, ptr noundef %0, i32 noundef %.4, i32 noundef 2, i32 noundef 0)
  %48 = add nuw nsw i32 %.4, 2
  br label %49

49:                                               ; preds = %45, %42
  %.5 = phi i32 [ %48, %45 ], [ %.4, %42 ]
  %50 = zext i16 %4 to i32
  %51 = icmp samesign ult i32 %.5, %50
  br i1 %51, label %52, label %54

52:                                               ; preds = %49
  %53 = call ptr @proto_tree_add_expert(ptr noundef %2, ptr noundef %1, ptr noundef nonnull @ei_pfcp_ie_data_not_decoded, ptr noundef %0, i32 noundef %.5, i32 noundef -1)
  br label %54

54:                                               ; preds = %52, %49
  call void @llvm.lifetime.end.p0(i64 8, ptr nonnull %8) #15
  ret void
}